; Function Attrs: mustprogress uwtable
define dso_local noundef nonnull ptr @_ZNK4i18n12phonenumbers15PhoneNumberUtil21GetAsYouTypeFormatterERKNSt7__cxx1112basic_stringIcSt11char_traitsIcESaIcEEE(ptr nocapture noundef nonnull readnone align 8 dereferenceable(64) %0, ptr noundef nonnull align 8 dereferenceable(32) %1) local_unnamed_addr #4 align 2 personality ptr @__gxx_personality_v0 {
  %3 = tail call noalias noundef nonnull dereferenceable(736) ptr @_Znwm(i64 noundef 736) #28
  invoke void @_ZN4i18n12phonenumbers18AsYouTypeFormatterC1ERKNSt7__cxx1112basic_stringIcSt11char_traitsIcESaIcEEE(ptr noundef nonnull align 8 dereferenceable(736) %3, ptr noundef nonnull align 8 dereferenceable(32) %1)
          to label %4 unwind label %5

4:                                                ; preds = %2
  ret ptr %3

5:                                                ; preds = %2
  %6 = landingpad { ptr, i32 }
          cleanup
  tail call void @_ZdlPv(ptr noundef nonnull %3) #29
  resume { ptr, i32 } %6
}